(lp0
(lp1
(dp2
S'y'
p3
S'755.3'
p4
sS'x'
p5
S'270.9'
p6
sS'hn'
p7
S'5'
p8
sS'id'
p9
S'100'
p10
sS'nbgh'
p11
S'151'
p12
sa(dp13
g3
S'838'
p14
sg5
S'331'
p15
sg7
S'4'
p16
sg9
S'151'
p17
sg11
S'101,100'
p18
sa(dp19
g3
S'986'
p20
sg5
S'499.1'
p21
sg7
g16
sg9
S'101'
p22
sg11
S'151,102'
p23
sa(dp24
g3
S'1281.3'
p25
sg5
S'770.8'
p26
sg7
S''
p27
sg9
S'102'
p28
sg11
S'101,107'
p29
sa(dp30
g3
S'1491.1'
p31
sg5
S'970.7'
p32
sg7
g27
sg9
S'103'
p33
sg11
S'107,104'
p34
sa(dp35
g3
S'1583.9'
p36
sg5
S'1067.1'
p37
sg7
g27
sg9
S'104'
p38
sg11
S'103,105'
p39
sa(dp40
g3
S'1773'
p41
sg5
S'1267.6'
p42
sg7
S'2'
p43
sg9
S'105'
p44
sg11
S'104,106'
p45
sa(dp46
g3
S'1977.6'
p47
sg5
S'1457.6'
p48
sg7
g27
sg9
S'106'
p49
sg11
S'105,148'
p50
sa(dp51
g3
S'1303.2'
p52
sg5
S'789.9'
p53
sg7
S'3'
p54
sg9
S'107'
p55
sg11
S'102,108,103'
p56
sa(dp57
g3
S'1223.8'
p58
sg5
S'925.1'
p59
sg7
g27
sg9
S'108'
p60
sg11
S'107,110'
p61
sa(dp62
g3
S'1194.6'
p63
sg5
S'1258.4'
p64
sg7
g27
sg9
S'109'
p65
sg11
S'110,111'
p66
sa(dp67
g3
S'1145.6'
p68
sg5
S'1140.8'
p69
sg7
S'6'
p70
sg9
S'110'
p71
sg11
S'108,109'
p72
sa(dp73
g3
S'1145.6'
p74
sg5
S'1409.8'
p75
sg7
g27
sg9
S'111'
p76
sg11
S'109,117,113'
p77
sa(dp78
g3
S'2008.3'
p79
sg5
S'1696.8'
p80
sg7
S'1'
p81
sg9
S'112'
p82
sg11
S'148'
p83
sa(dp84
g3
S'1040.9'
p85
sg5
S'1594.1'
p86
sg7
g27
sg9
S'113'
p87
sg11
S'111,114'
p88
sa(dp89
g3
S'1004'
p90
sg5
S'1541'
p91
sg7
g27
sg9
S'114'
p92
sg11
S'113,115'
p93
sa(dp94
g3
S'939.9'
p95
sg5
S'1483.8'
p96
sg7
g27
sg9
S'115'
p97
sg11
S'114,116'
p98
sa(dp99
g3
S'898.7'
p100
sg5
S'1439.8'
p101
sg7
g27
sg9
S'116'
p102
sg11
S'115,149'
p103
sa(dp104
g3
S'1218.1'
p105
sg5
S'1455'
p106
sg7
g27
sg9
S'117'
p107
sg11
S'111,118'
p108
sa(dp109
g3
S'1252.1'
p110
sg5
S'1483.8'
p111
sg7
S'14'
p112
sg9
S'118'
p113
sg11
S'117,119'
p114
sa(dp115
g3
S'1302.1'
p116
sg5
S'1425.6'
p117
sg7
S'14'
p118
sg9
S'119'
p119
sg11
S'118,124'
p120
sa(dp121
g3
S'1587'
p122
sg5
S'1720'
p123
sg7
g27
sg9
S'120'
p124
sg11
S'121,124,144'
p125
sa(dp126
g3
S'1690.3'
p127
sg5
S'1780.1'
p128
sg7
g27
sg9
S'121'
p129
sg11
S'120,122'
p130
sa(dp131
g3
S'1794.8'
p132
sg5
S'1622.3'
p133
sg7
g27
sg9
S'122'
p134
sg11
S'121,123'
p135
sa(dp136
g3
S'1608.6'
p137
sg5
S'1455'
p138
sg7
g27
sg9
S'123'
p139
sg11
S'122'
p140
sa(dp141
g3
S'1477.7'
p142
sg5
S'1632.3'
p143
sg7
g27
sg9
S'124'
p144
sg11
S'119,125,120'
p145
sa(dp146
g3
S'1407.7'
p147
sg5
S'1785.1'
p148
sg7
g27
sg9
S'125'
p149
sg11
S'124,126'
p150
sa(dp151
g3
S'1597.4'
p152
sg5
S'1969.8'
p153
sg7
g27
sg9
S'126'
p154
sg11
S'125,127'
p155
sa(dp156
g3
S'1541.4'
p157
sg5
S'2103.9'
p158
sg7
g27
sg9
S'127'
p159
sg11
S'126,130,143,128'
p160
sa(dp161
g3
S'1626.9'
p162
sg5
S'2181.4'
p163
sg7
S'0'
p164
sg9
S'128'
p165
sg11
S'127,147,146,129'
p166
sa(dp167
g3
S'1852'
p168
sg5
S'2389.8'
p169
sg7
g164
sg9
S'129'
p170
sg11
S'128'
p171
sa(dp172
g3
S'1418.6'
p173
sg5
S'2282'
p174
sg7
g27
sg9
S'130'
p175
sg11
S'127,132'
p176
sa(dp177
g3
S'1379.1'
p178
sg5
S'2500.4'
p179
sg7
g27
sg9
S'131'
p180
sg11
S'132,133'
p181
sa(dp182
g3
S'1315.5'
p183
sg5
S'2457.4'
p184
sg7
g27
sg9
S'132'
p185
sg11
S'142,130,131'
p186
sa(dp187
g3
S'1496.8'
p188
sg5
S'2610.5'
p189
sg7
S'8'
p190
sg9
S'133'
p191
sg11
S'131,134'
p192
sa(dp193
g3
S'1330.9'
p194
sg5
S'2949'
p195
sg7
g190
sg9
S'134'
p196
sg11
S'135,133'
p197
sa(dp198
g3
S'1201.6'
p199
sg5
S'2809.6'
p200
sg7
g27
sg9
S'135'
p201
sg11
S'134,136'
p202
sa(dp203
g3
S'1006.3'
p204
sg5
S'2630.6'
p205
sg7
S'9'
p206
sg9
S'136'
p207
sg11
S'135,137'
p208
sa(dp209
g3
S'807.6'
p210
sg5
S'2417.4'
p211
sg7
g27
sg9
S'137'
p212
sg11
S'136,138'
p213
sa(dp214
g3
S'719'
p215
sg5
S'2324.6'
p216
sg7
g27
sg9
S'138'
p217
sg11
S'137,139'
p218
sa(dp219
g3
S'622.9'
p220
sg5
S'2225.5'
p221
sg7
S'10'
p222
sg9
S'139'
p223
sg11
S'138,140'
p224
sa(dp225
g3
S'517.1'
p226
sg5
S'2102.1'
p227
sg7
g27
sg9
S'140'
p228
sg11
S'139,141'
p229
sa(dp230
g3
S'371.3'
p231
sg5
S'1958.8'
p232
sg7
S'11'
p233
sg9
S'141'
p234
sg11
S'140'
p235
sa(dp236
g3
S'1168.6'
p237
sg5
S'2457.4'
p238
sg7
S'15'
p239
sg9
S'142'
p240
sg11
S'132,145'
p241
sa(dp242
g3
S'1437.5'
p243
sg5
S'2041.1'
p244
sg7
g27
sg9
S'143'
p245
sg11
S'127,150'
p246
sa(dp247
g3
S'1022.9'
p248
sg5
S'2376.9'
p249
sg7
g27
sg9
S'145'
p250
sg11
S'142,152'
p251
sa(dp252
g3
S'1562.1'
p253
sg5
S'2277'
p254
sg7
g27
sg9
S'146'
p255
sg11
S'128'
p256
sa(dp257
g3
S'1681.2'
p258
sg5
S'2059.3'
p259
sg7
g27
sg9
S'147'
p260
sg11
S'128'
p261
sa(dp262
g3
S'2083.9'
p263
sg5
S'1545.9'
p264
sg7
g81
sg9
S'148'
p265
sg11
S'106,112'
p266
sa(dp267
g3
S'812.6'
p268
sg5
S'1377.6'
p269
sg7
S'7'
p270
sg9
S'149'
p271
sg11
S'116'
p272
sa(dp273
g3
S'1192.5'
p274
sg5
S'1900.7'
p275
sg7
g27
sg9
S'150'
p276
sg11
S'143'
p277
sa(dp278
g3
S'794.6'
p279
sg5
S'2248.8'
p280
sg7
g27
sg9
S'152'
p281
sg11
S'145'
p282
saa(lp283
(dp284
g3
S'1099.4'
p285
sg5
S'336.2'
p286
sg7
g27
sg9
S'200'
p287
sg11
S'229,201'
p288
sa(dp289
g3
S'1331.6'
p290
sg5
S'569.4'
p291
sg7
S'25'
p292
sg9
S'201'
p293
sg11
S'200,202'
p294
sa(dp295
g3
S'1537.8'
p296
sg5
S'770.4'
p297
sg7
g27
sg9
S'202'
p298
sg11
S'201,203'
p299
sa(dp300
g3
S'1630.5'
p301
sg5
S'844.5'
p302
sg7
S'24'
p303
sg9
S'203'
p304
sg11
S'202,204,230'
p305
sa(dp306
g3
S'1750.2'
p307
sg5
S'978'
p308
sg7
g27
sg9
S'204'
p309
sg11
S'203,205'
p310
sa(dp311
g3
S'1840.3'
p312
sg5
S'1063'
p313
sg7
g27
sg9
S'205'
p314
sg11
S'204,206'
p315
sa(dp316
g3
S'2052.5'
p317
sg5
S'1274.3'
p318
sg7
S'27'
p319
sg9
S'206'
p320
sg11
S'205,207'
p321
sa(dp322
g3
S'2231.5'
p323
sg5
S'1461.9'
p324
sg7
g27
sg9
S'207'
p325
sg11
S'206,208'
p326
sa(dp327
g3
S'2348'
p328
sg5
S'1581'
p329
sg7
S'22'
p330
sg9
S'208'
p331
sg11
S'207,209'
p332
sa(dp333
g3
S'2275.9'
p334
sg5
S'1721.4'
p335
sg7
g27
sg9
S'209'
p336
sg11
S'208,210'
p337
sa(dp338
g3
S'2153'
p339
sg5
S'1966.1'
p340
sg7
S'21'
p341
sg9
S'210'
p342
sg11
S'209,212'
p343
sa(dp344
g3
S'2115'
p345
sg5
S'2402.4'
p346
sg7
S'20'
p347
sg9
S'211'
p348
sg11
S'212'
p349
sa(dp350
g3
S'1989.8'
p351
sg5
S'2299.4'
p352
sg7
S'19'
p353
sg9
S'212'
p354
sg11
S'210,211,213'
p355
sa(dp356
g3
S'1897.7'
p357
sg5
S'2489.4'
p358
sg7
S'18'
p359
sg9
S'213'
p360
sg11
S'212,214'
p361
sa(dp362
g3
S'1672.4'
p363
sg5
S'2774.7'
p364
sg7
g27
sg9
S'214'
p365
sg11
S'213,215'
p366
sa(dp367
g3
S'1640.3'
p368
sg5
S'2862.9'
p369
sg7
g27
sg9
S'215'
p370
sg11
S'214,216'
p371
sa(dp372
g3
S'1516.4'
p373
sg5
S'2701.5'
p374
sg7
g27
sg9
S'216'
p375
sg11
S'215,217'
p376
sa(dp377
g3
S'1277.2'
p378
sg5
S'2611.1'
p379
sg7
S'17'
p380
sg9
S'217'
p381
sg11
S'216,218'
p382
sa(dp383
g3
S'1065.2'
p384
sg5
S'2413.4'
p385
sg7
g27
sg9
S'218'
p386
sg11
S'217,219'
p387
sa(dp388
g3
S'975'
p389
sg5
S'2325.1'
p390
sg7
g27
sg9
S'219'
p391
sg11
S'218,220'
p392
sa(dp393
g3
S'774.4'
p394
sg5
S'2100.4'
p395
sg7
g27
sg9
S'220'
p396
sg11
S'234,219,221'
p397
sa(dp398
g3
S'604.2'
p399
sg5
S'1952.7'
p400
sg7
S'29'
p401
sg9
S'221'
p402
sg11
S'222,220'
p403
sa(dp404
g3
S'428.8'
p405
sg5
S'1749.7'
p406
sg7
g27
sg9
S'222'
p407
sg11
S'221,223'
p408
sa(dp409
g3
S'337.4'
p410
sg5
S'1663.6'
p411
sg7
g27
sg9
S'223'
p412
sg11
S'222,224'
p413
sa(dp414
g3
S'223'
p415
sg5
S'1578.2'
p416
sg7
S'28'
p417
sg9
S'224'
p418
sg11
S'223,225'
p419
sa(dp420
g3
S'464.2'
p421
sg5
S'1166.9'
p422
sg7
S'28'
p423
sg9
S'225'
p424
sg11
S'224,226'
p425
sa(dp426
g3
S'542.7'
p427
sg5
S'994.3'
p428
sg7
g27
sg9
S'226'
p429
sg11
S'225,227'
p430
sa(dp431
g3
S'683.5'
p432
sg5
S'796.6'
p433
sg7
S'27'
p434
sg9
S'227'
p435
sg11
S'226,228'
p436
sa(dp437
g3
S'825.6'
p438
sg5
S'562.3'
p439
sg7
S'26'
p440
sg9
S'228'
p441
sg11
S'227,229'
p442
sa(dp443
g3
S'979.6'
p444
sg5
S'301.7'
p445
sg7
S'26'
p446
sg9
S'229'
p447
sg11
S'228,200'
p448
sa(dp449
g3
S'1334.4'
p450
sg5
S'1381.5'
p451
sg7
S'24'
p452
sg9
S'230'
p453
sg11
S'203,231'
p454
sa(dp455
g3
S'1238.9'
p456
sg5
S'1560.8'
p457
sg7
g27
sg9
S'231'
p458
sg11
S'230,232,240,234'
p459
sa(dp460
g3
S'1151.7'
p461
sg5
S'1443'
p462
sg7
g27
sg9
S'232'
p463
sg11
S'231,233'
p464
sa(dp465
g3
S'713.6'
p466
sg5
S'1018.2'
p467
sg7
S'233'
p468
sg9
S'233'
p469
sg11
S'232'
p470
sa(dp471
g3
S'1015.7'
p472
sg5
S'1935.7'
p473
sg7
S'16'
p474
sg9
S'234'
p475
sg11
S'231,235,220'
p476
sa(dp477
g3
S'1119.9'
p478
sg5
S'2027.1'
p479
sg7
g27
sg9
S'235'
p480
sg11
S'234,236'
p481
sa(dp482
g3
S'1164.8'
p483
sg5
S'2045'
p484
sg7
S'16a'
p485
sg9
S'236'
p486
sg11
S'235,237'
p487
sa(dp488
g3
S'1114.4'
p489
sg5
S'2160.2'
p490
sg7
g27
sg9
S'237'
p491
sg11
S'236,238'
p492
sa(dp493
g3
S'1267'
p494
sg5
S'2253.6'
p495
sg7
g27
sg9
S'238'
p496
sg11
S'237,239'
p497
sa(dp498
g3
S'1518.3'
p499
sg5
S'2390.3'
p500
sg7
g27
sg9
S'239'
p501
sg11
S'238'
p502
sa(dp503
g3
S'1400'
p504
sg5
S'1669'
p505
sg7
g27
sg9
S'240'
p506
sg11
S'231'
p507
saa(lp508
(dp509
g3
S'353'
p510
sg5
S'570.3'
p511
sg7
g27
sg9
S'300'
p512
sg11
S'313,327'
p513
sa(dp514
g3
S'731.2'
p515
sg5
S'984.8'
p516
sg7
g27
sg9
S'301'
p517
sg11
S'327,304'
p518
sa(dp519
g3
S'843.8'
p520
sg5
S'953.5'
p521
sg7
g27
sg9
S'302'
p522
sg11
S'304,310'
p523
sa(dp524
g3
S'720.8'
p525
sg5
S'1322.3'
p526
sg7
g27
sg9
S'303'
p527
sg11
S'323,328'
p528
sa(dp529
g3
S'799.1'
p530
sg5
S'1040.6'
p531
sg7
g27
sg9
S'304'
p532
sg11
S'301,302,323'
p533
sa(dp534
g3
S'624.2'
p535
sg5
S'1818.4'
p536
sg7
g27
sg9
S'305'
p537
sg11
S'306,308'
p538
sa(dp539
g3
S'516.7'
p540
sg5
S'1687.5'
p541
sg7
g27
sg9
S'306'
p542
sg11
S'305,328'
p543
sa(dp544
g3
S'926.1'
p545
sg5
S'1528.9'
p546
sg7
g27
sg9
S'307'
p547
sg11
S'309,334'
p548
sa(dp549
g3
S'716.1'
p550
sg5
S'1900'
p551
sg7
g27
sg9
S'308'
p552
sg11
S'305,334'
p553
sa(dp554
g3
S'1014.9'
p555
sg5
S'1378.4'
p556
sg7
S'11'
p557
sg9
S'309'
p558
sg11
S'307,329'
p559
sa(dp560
g3
S'886.4'
p561
sg5
S'894.1'
p562
sg7
g27
sg9
S'310'
p563
sg11
S'302,339'
p564
sa(dp565
g3
S'935.1'
p566
sg5
S'623.5'
p567
sg7
g27
sg9
S'311'
p568
sg11
S'324,340'
p569
sa(dp570
g3
S'517.1'
p571
sg5
S'283.8'
p572
sg7
g27
sg9
S'312'
p573
sg11
S'326,324'
p574
sa(dp575
g3
S'285.4'
p576
sg5
S'503.3'
p577
sg7
g27
sg9
S'313'
p578
sg11
S'300,325'
p579
sa(dp580
g3
S'430'
p581
sg5
S'257.5'
p582
sg7
g27
sg9
S'314'
p583
sg11
S'312,325'
p584
sa(dp585
g3
S'1487.7'
p586
sg5
S'1152.3'
p587
sg7
g27
sg9
S'316'
p588
sg11
S'317,318'
p589
sa(dp590
g3
S'1408.7'
p591
sg5
S'1089.1'
p592
sg7
S'12'
p593
sg9
S'317'
p594
sg11
S'316'
p595
sa(dp596
g3
S'1527.4'
p597
sg5
S'1187.1'
p598
sg7
g27
sg9
S'318'
p599
sg11
S'316,338'
p600
sa(dp601
g3
S'1408.7'
p602
sg5
S'1401.6'
p603
sg7
g27
sg9
S'319'
p604
sg11
S'320,338'
p605
sa(dp606
g3
S'1368.3'
p607
sg5
S'1359.4'
p608
sg7
g27
sg9
S'320'
p609
sg11
S'319,322'
p610
sa(dp611
g3
S'1240.6'
p612
sg5
S'1232.6'
p613
sg7
g27
sg9
S'321'
p614
sg11
S'322,333'
p615
sa(dp616
g3
S'1292.8'
p617
sg5
S'1296.8'
p618
sg7
g27
sg9
S'322'
p619
sg11
S'310,321'
p620
sa(dp621
g3
S'791.8'
p622
sg5
S'1174.3'
p623
sg7
g190
sg9
S'323'
p624
sg11
S'303,304'
p625
sa(dp626
g3
S'742.2'
p627
sg5
S'427.7'
p628
sg7
S'15'
p629
sg9
S'324'
p630
sg11
S'311,312'
p631
sa(dp632
g3
S'360'
p633
sg5
S'375.8'
p634
sg7
S'16'
p635
sg9
S'325'
p636
sg11
S'313,314'
p637
sa(dp638
g3
S'427.2'
p639
sg5
S'257.5'
p640
sg7
g27
sg9
S'326'
p641
sg11
S'312,325'
p642
sa(dp643
g3
S'526'
p644
sg5
S'786.9'
p645
sg7
S'17'
p646
sg9
S'327'
p647
sg11
S'300, 301'
p648
sa(dp649
g3
S'568.2'
p650
sg5
S'1568.7'
p651
sg7
g206
sg9
S'328'
p652
sg11
S'303,306'
p653
sa(dp654
g3
S'1143.7'
p655
sg5
S'1253.9'
p656
sg7
g27
sg9
S'329'
p657
sg11
S'309,333'
p658
sa(dp659
g3
S'1229.4'
p660
sg5
S'1094.1'
p661
sg7
g27
sg9
S'330'
p662
sg11
S'331,333'
p663
sa(dp664
g3
S'1287.8'
p665
sg5
S'989.8'
p666
sg7
g27
sg9
S'331'
p667
sg11
S'330,332'
p668
sa(dp669
g3
S'1144.6'
p670
sg5
S'852.7'
p671
sg7
S'14'
p672
sg9
S'332'
p673
sg11
S'331,340'
p674
sa(dp675
g3
S'1172.6'
p676
sg5
S'1214.3'
p677
sg7
g27
sg9
S'333'
p678
sg11
S'321,329,330'
p679
sa(dp680
g3
S'774.1'
p681
sg5
S'1807.9'
p682
sg7
S'10'
p683
sg9
S'334'
p684
sg11
S'307,308'
p685
sa(dp686
g3
S'705.3'
p687
sg5
S'663.5'
p688
sg7
g27
sg9
S'335'
p689
sg11
S'310'
p690
sa(dp691
g3
S'946.1'
p692
sg5
S'980'
p693
sg7
g27
sg9
S'336'
p694
sg11
S'310,337'
p695
sa(dp696
g3
S'1029.8'
p697
sg5
S'1089.2'
p698
sg7
g27
sg9
S'337'
p699
sg11
S'336'
p700
sa(dp701
g3
S'1456.1'
p702
sg5
S'1322.3'
p703
sg7
S'13'
p704
sg9
S'338'
p705
sg11
S'318,319'
p706
sa(dp707
g3
S'929.9'
p708
sg5
S'793.4'
p709
sg7
g27
sg9
S'339'
p710
sg11
S'310,340'
p711
sa(dp712
g3
S'987.9'
p713
sg5
S'691.8'
p714
sg7
g27
sg9
S'340'
p715
sg11
S'311,339'
p716
saa(lp717
(dp718
g3
S'1102.8'
p719
sg5
S'679.8'
p720
sg7
g27
sg9
S'400'
p721
sg11
S'401,426'
p722
sa(dp723
g3
S'1276.9'
p724
sg5
S'871.2'
p725
sg7
S'25'
p726
sg9
S'401'
p727
sg11
S'400,404'
p728
sa(dp729
g3
S'1396.8'
p730
sg5
S'1152.5'
p731
sg7
g27
sg9
S'402'
p732
sg11
S'404,405'
p733
sa(dp734
g3
S'1505.2'
p735
sg5
S'1104.6'
p736
sg7
g27
sg9
S'403'
p737
sg11
S'404,427'
p738
sa(dp739
g3
S'1451.8'
p740
sg5
S'1061'
p741
sg7
g27
sg9
S'404'
p742
sg11
S'401,402,403'
p743
sa(dp744
g3
S'1348.2'
p745
sg5
S'1237.7'
p746
sg7
g27
sg9
S'405'
p747
sg11
S'402,406,408,428'
p748
sa(dp749
g3
S'1403.8'
p750
sg5
S'1291.1'
p751
sg7
g27
sg9
S'406'
p752
sg11
S'405,407'
p753
sa(dp754
g3
S'1454.2'
p755
sg5
S'1348.4'
p756
sg7
S'99'
p757
sg9
S'407'
p758
sg11
S'406'
p759
sa(dp760
g3
S'1308.1'
p761
sg5
S'1307.8'
p762
sg7
g27
sg9
S'408'
p763
sg11
S'405,409'
p764
sa(dp765
g3
S'1174.7'
p766
sg5
S'1436.7'
p767
sg7
S'18'
p768
sg9
S'409'
p769
sg11
S'408,410'
p770
sa(dp771
g3
S'1097.1'
p772
sg5
S'1586.8'
p773
sg7
g27
sg9
S'410'
p774
sg11
S'409,411'
p775
sa(dp776
g3
S'945.6'
p777
sg5
S'1819.4'
p778
sg7
S'19'
p779
sg9
S'411'
p780
sg11
S'410,413'
p781
sa(dp782
g3
S'789.9'
p783
sg5
S'1875.2'
p784
sg7
g27
sg9
S'412'
p785
sg11
S'413,414'
p786
sa(dp787
g3
S'873.3'
p788
sg5
S'1971.2'
p789
sg7
g27
sg9
S'413'
p790
sg11
S'411,412'
p791
sa(dp792
g3
S'669.8'
p793
sg5
S'1746.6'
p794
sg7
g27
sg9
S'414'
p795
sg11
S'412,415'
p796
sa(dp797
g3
S'723.7'
p798
sg5
S'1633.3'
p799
sg7
S'20'
p800
sg9
S'415'
p801
sg11
S'414,416'
p802
sa(dp803
g3
S'888.3'
p804
sg5
S'1375.2'
p805
sg7
g27
sg9
S'416'
p806
sg11
S'415,417'
p807
sa(dp808
g3
S'956.9'
p809
sg5
S'1241.4'
p810
sg7
S'21'
p811
sg9
S'417'
p812
sg11
S'416,419'
p813
sa(dp814
g3
S'896.5'
p815
sg5
S'1044.6'
p816
sg7
g27
sg9
S'418'
p817
sg11
S'419,420'
p818
sa(dp819
g3
S'1006'
p820
sg5
S'1158.4'
p821
sg7
g27
sg9
S'419'
p822
sg11
S'417,418'
p823
sa(dp824
g3
S'678.8'
p825
sg5
S'838.1'
p826
sg7
S'22'
p827
sg9
S'420'
p828
sg11
S'418,421'
p829
sa(dp830
g3
S'515.2'
p831
sg5
S'625.4'
p832
sg7
g27
sg9
S'421'
p833
sg11
S'420,422'
p834
sa(dp835
g3
S'462.4'
p836
sg5
S'575.6'
p837
sg7
g27
sg9
S'422'
p838
sg11
S'421,423'
p839
sa(dp840
g3
S'529.2'
p841
sg5
S'437.8'
p842
sg7
S'23'
p843
sg9
S'423'
p844
sg11
S'422,425'
p845
sa(dp846
g3
S'682.8'
p847
sg5
S'341.1'
p848
sg7
g27
sg9
S'424'
p849
sg11
S'425,426'
p850
sa(dp851
g3
S'605.7'
p852
sg5
S'303.3'
p853
sg7
g27
sg9
S'425'
p854
sg11
S'423,424'
p855
sa(dp856
g3
S'887.6'
p857
sg5
S'474.6'
p858
sg7
S'24'
p859
sg9
S'426'
p860
sg11
S'400,424'
p861
sa(dp862
g3
S'1561.3'
p863
sg5
S'1160.6'
p864
sg7
S'26'
p865
sg9
S'427'
p866
sg11
S'403'
p867
sa(dp868
g3
S'1293.9'
p869
sg5
S'1186.2'
p870
sg7
g27
sg9
S'428'
p871
sg11
S'405,429'
p872
sa(dp873
g3
S'1260.9'
p874
sg5
S'1113.6'
p875
sg7
g27
sg9
S'429'
p876
sg11
S'429'
p877
saa.